((lp0
(lp1
F-1.0
aF1.0
aa(lp2
F-1.0000000000000002
aF0.0
aa(lp3
F-1.0000000000000002
aF-1.0000000000000002
aa(lp4
F0.0
aF-1.0
aa(lp5
F1.0
aF-1.0
aa(lp6
F1.0
aF0.0
aa(lp7
F1.0
aF1.0
aa(lp8
F0.0
aF1.0000000000000002
aa(lp9
(lp10
I2
aI3
aa(lp11
I3
aI1
aa(lp12
I1
aI2
aa(lp13
I7
aI0
aa(lp14
I0
aI1
aa(lp15
I1
aI7
aa(lp16
I3
aI5
aa(lp17
I5
aI1
aa(lp18
I5
aI7
aa(lp19
I6
aI7
aa(lp20
I5
aI6
aa(lp21
I3
aI4
aa(lp22
I4
aI5
aa(lp23
(lp24
I0
aI1
aI2
aa(lp25
I3
aI4
aI5
aa(lp26
I1
aI6
aI7
aa(lp27
I8
aI5
aI7
aa(lp28
I9
aI8
aI10
aa(lp29
I6
aI11
aI12
aa(lp30
I0
aI1
aI2
aI3
aI4
aI5
aI6
aI7
a(lp31
(lp32
I1
aI1
aI1
aI1
aa(lp33
I1
aI1
aI1
aI1
aa(lp34
I-1
aI1
aI1
aI-1
aa(lp35
I1
aI-1
aI-1
aI1
aa(lp36
I1
aI-1
aI1
aI1
aa(lp37
I-1
aI1
aI1
aI-1
aatp38
.