((lp0
(lp1
F0.0
aF1.0
aa(lp2
F-0.5
aF1.0
aa(lp3
F-1.0
aF1.0
aa(lp4
F-0.9999999999999999
aF0.3419260585432167
aa(lp5
F-0.9999999999999999
aF-0.3419260585432165
aa(lp6
F-1.0000000000000002
aF-1.0000000000000002
aa(lp7
F-0.3419260585432169
aF-1.0000000000000002
aa(lp8
F0.3419260585432165
aF-0.9999999999999999
aa(lp9
F1.0
aF-1.0
aa(lp10
F1.0
aF-0.3419260585432169
aa(lp11
F0.9999999999999999
aF0.3419260585432165
aa(lp12
F1.0
aF1.0
aa(lp13
F0.5
aF1.0
aa(lp14
F-0.058456714755449335
aF5.551115123125783e-17
aa(lp15
F-0.5913144193480633
aF1.1102230246251565e-16
aa(lp16
F-0.32488556705175653
aF-0.46465302250717166
aa(lp17
F-0.32488556705175625
aF0.47984036564542887
aa(lp18
F0.5259998951719848
aF-4.440892098500626e-16
aa(lp19
F0.25
aF0.4931620289325265
aa(lp20
F0.23377159020826732
aF-0.46315000339942414
aa(lp21
(lp22
I6
aI15
aa(lp23
I15
aI5
aa(lp24
I5
aI6
aa(lp25
I15
aI19
aa(lp26
I19
aI13
aa(lp27
I13
aI15
aa(lp28
I4
aI14
aa(lp29
I14
aI3
aa(lp30
I3
aI4
aa(lp31
I6
aI19
aa(lp32
I2
aI3
aa(lp33
I3
aI1
aa(lp34
I1
aI2
aa(lp35
I19
aI9
aa(lp36
I9
aI17
aa(lp37
I17
aI19
aa(lp38
I14
aI16
aa(lp39
I16
aI3
aa(lp40
I13
aI14
aa(lp41
I14
aI15
aa(lp42
I4
aI15
aa(lp43
I6
aI7
aa(lp44
I7
aI19
aa(lp45
I7
aI8
aa(lp46
I8
aI9
aa(lp47
I9
aI7
aa(lp48
I13
aI16
aa(lp49
I0
aI16
aa(lp50
I16
aI18
aa(lp51
I18
aI0
aa(lp52
I10
aI17
aa(lp53
I9
aI10
aa(lp54
I16
aI1
aa(lp55
I18
aI17
aa(lp56
I10
aI18
aa(lp57
I10
aI11
aa(lp58
I11
aI12
aa(lp59
I12
aI10
aa(lp60
I4
aI5
aa(lp61
I18
aI12
aa(lp62
I12
aI0
aa(lp63
I17
aI13
aa(lp64
I0
aI1
aa(lp65
I13
aI18
aa(lp66
(lp67
I0
aI1
aI2
aa(lp68
I3
aI4
aI5
aa(lp69
I6
aI7
aI8
aa(lp70
I0
aI9
aI3
aa(lp71
I10
aI11
aI12
aa(lp72
I13
aI14
aI15
aa(lp73
I16
aI17
aI7
aa(lp74
I18
aI19
aI5
aa(lp75
I19
aI6
aI20
aa(lp76
I9
aI21
aI22
aa(lp77
I23
aI24
aI25
aa(lp78
I16
aI18
aI26
aa(lp79
I27
aI28
aI29
aa(lp80
I30
aI14
aI31
aa(lp81
I17
aI32
aI11
aa(lp82
I33
aI30
aI34
aa(lp83
I35
aI36
aI37
aa(lp84
I38
aI1
aI20
aa(lp85
I39
aI40
aI29
aa(lp86
I34
aI37
aI39
aa(lp87
I15
aI41
aI4
aa(lp88
I42
aI32
aI27
aa(lp89
I43
aI28
aI26
aa(lp90
I41
aI33
aI43
aa(lp91
I13
aI22
aI25
aa(lp92
I0
aI1
aI2
aI3
aI4
aI5
aI6
aI7
aI8
aI9
aI10
aI11
aI12
a(lp93
(lp94
I1
aI1
aI1
aI1
aa(lp95
I1
aI1
aI1
aI1
aa(lp96
I1
aI1
aI1
aI1
aa(lp97
I-1
aI1
aI-1
aI-1
aa(lp98
I1
aI1
aI1
aI1
aa(lp99
I1
aI1
aI1
aI1
aa(lp100
I1
aI1
aI-1
aI1
aa(lp101
I1
aI1
aI-1
aI1
aa(lp102
I-1
aI-1
aI1
aI-1
aa(lp103
I-1
aI1
aI1
aI-1
aa(lp104
I1
aI1
aI1
aI1
aa(lp105
I-1
aI-1
aI1
aI-1
aa(lp106
I1
aI1
aI1
aI1
aa(lp107
I1
aI-1
aI1
aI1
aa(lp108
I-1
aI1
aI-1
aI-1
aa(lp109
I1
aI-1
aI1
aI1
aa(lp110
I1
aI1
aI1
aI1
aa(lp111
I1
aI-1
aI-1
aI1
aa(lp112
I1
aI1
aI-1
aI1
aa(lp113
I-1
aI-1
aI-1
aI-1
aa(lp114
I-1
aI1
aI-1
aI-1
aa(lp115
I1
aI-1
aI-1
aI1
aa(lp116
I1
aI-1
aI-1
aI1
aa(lp117
I-1
aI-1
aI-1
aI-1
aa(lp118
I-1
aI-1
aI-1
aI-1
aatp119
.